target datalayout = "e-m:e-p270:32:32-p271:32:32-p272:64:64-i64:64-i128:128-f80:128-n8:16:32:64-S128"
target triple = "x86_64-pc-linux-gnu"

%struct._wmem_strbuf_t = type { ptr, ptr, i64, i64 }

; Function Attrs: null_pointer_is_valid sspstrong uwtable
define void @wmem_strbuf_utf8_make_valid(ptr noundef %0) #0 {
  %2 = alloca ptr, align 8
  %3 = alloca ptr, align 8
  store ptr %0, ptr %2, align 8
  call void @llvm.lifetime.start.p0(i64 8, ptr %3) #15
  %4 = load ptr, ptr %2, align 8
  %5 = getelementptr inbounds nuw %struct._wmem_strbuf_t, ptr %4, i32 0, i32 0
  %6 = load ptr, ptr %5, align 8
  %7 = load ptr, ptr %2, align 8
  %8 = getelementptr inbounds nuw %struct._wmem_strbuf_t, ptr %7, i32 0, i32 1
  %9 = load ptr, ptr %8, align 8
  %10 = load ptr, ptr %2, align 8
  %11 = getelementptr inbounds nuw %struct._wmem_strbuf_t, ptr %10, i32 0, i32 2
  %12 = load i64, ptr %11, align 8
  %13 = call ptr @ws_utf8_make_valid_strbuf(ptr noundef %6, ptr noundef %9, i64 noundef %12)
  store ptr %13, ptr %3, align 8
  %14 = load ptr, ptr %2, align 8
  %15 = getelementptr inbounds nuw %struct._wmem_strbuf_t, ptr %14, i32 0, i32 0
  %16 = load ptr, ptr %15, align 8
  %17 = load ptr, ptr %2, align 8
  %18 = getelementptr inbounds nuw %struct._wmem_strbuf_t, ptr %17, i32 0, i32 1
  %19 = load ptr, ptr %18, align 8
  call void @wmem_free(ptr noundef %16, ptr noundef %19)
  %20 = load ptr, ptr %3, align 8
  %21 = getelementptr inbounds nuw %struct._wmem_strbuf_t, ptr %20, i32 0, i32 1
  %22 = load ptr, ptr %21, align 8
  %23 = load ptr, ptr %2, align 8
  %24 = getelementptr inbounds nuw %struct._wmem_strbuf_t, ptr %23, i32 0, i32 1
  store ptr %22, ptr %24, align 8
  %25 = load ptr, ptr %3, align 8
  %26 = getelementptr inbounds nuw %struct._wmem_strbuf_t, ptr %25, i32 0, i32 2
  %27 = load i64, ptr %26, align 8
  %28 = load ptr, ptr %2, align 8
  %29 = getelementptr inbounds nuw %struct._wmem_strbuf_t, ptr %28, i32 0, i32 2
  store i64 %27, ptr %29, align 8
  %30 = load ptr, ptr %3, align 8
  %31 = getelementptr inbounds nuw %struct._wmem_strbuf_t, ptr %30, i32 0, i32 3
  %32 = load i64, ptr %31, align 8
  %33 = load ptr, ptr %2, align 8
  %34 = getelementptr inbounds nuw %struct._wmem_strbuf_t, ptr %33, i32 0, i32 3
  store i64 %32, ptr %34, align 8
  %35 = load ptr, ptr %2, align 8
  %36 = getelementptr inbounds nuw %struct._wmem_strbuf_t, ptr %35, i32 0, i32 0
  %37 = load ptr, ptr %36, align 8
  %38 = load ptr, ptr %3, align 8
  call void @wmem_free(ptr noundef %37, ptr noundef %38)
  call void @llvm.lifetime.end.p0(i64 8, ptr %3) #15
  ret void
}