; Function Attrs: null_pointer_is_valid sspstrong uwtable
define void @wmem_strbuf_utf8_make_valid(ptr noundef captures(none) initializes((24, 32)) %0) local_unnamed_addr #0 {
  %2 = load ptr, ptr %0, align 8
  %3 = getelementptr inbounds nuw i8, ptr %0, i64 8
  %4 = load ptr, ptr %3, align 8
  %5 = getelementptr inbounds nuw i8, ptr %0, i64 16
  %6 = load i64, ptr %5, align 8
  %7 = tail call ptr @ws_utf8_make_valid_strbuf(ptr noundef %2, ptr noundef %4, i64 noundef %6)
  %8 = load ptr, ptr %0, align 8
  %9 = load ptr, ptr %3, align 8
  tail call void @wmem_free(ptr noundef %8, ptr noundef %9)
  %10 = getelementptr inbounds nuw i8, ptr %7, i64 8
  %11 = load ptr, ptr %10, align 8
  store ptr %11, ptr %3, align 8
  %12 = getelementptr inbounds nuw i8, ptr %7, i64 16
  %13 = load i64, ptr %12, align 8
  store i64 %13, ptr %5, align 8
  %14 = getelementptr inbounds nuw i8, ptr %7, i64 24
  %15 = load i64, ptr %14, align 8
  %16 = getelementptr inbounds nuw i8, ptr %0, i64 24
  store i64 %15, ptr %16, align 8
  %17 = load ptr, ptr %0, align 8
  tail call void @wmem_free(ptr noundef %17, ptr noundef %7)
  ret void
}